; Function Attrs: nounwind sspstrong uwtable
define dso_local ptr @grabbag__replaygain_store_to_file_title(ptr noundef %0, float noundef %1, float noundef %2, i32 noundef %3) local_unnamed_addr #0 {
  %5 = alloca ptr, align 8
  %6 = alloca ptr, align 8
  call void @llvm.lifetime.start.p0(i64 8, ptr nonnull %5) #14
  call void @llvm.lifetime.start.p0(i64 8, ptr nonnull %6) #14
  store ptr null, ptr %6, align 8, !tbaa !40
  %7 = call fastcc ptr @store_to_file_pre_(ptr noundef %0, ptr noundef %5, ptr noundef %6)
  %.not = icmp eq ptr %7, null
  br i1 %.not, label %8, label %22

8:                                                ; preds = %4
  %9 = load ptr, ptr %6, align 8, !tbaa !40
  %10 = tail call i32 @FLAC__metadata_object_vorbiscomment_remove_entries_matching(ptr noundef %9, ptr noundef nonnull @.str.1) #14
  %11 = icmp slt i32 %10, 0
  br i1 %11, label %select.unfold, label %12

12:                                               ; preds = %8
  %13 = tail call i32 @FLAC__metadata_object_vorbiscomment_remove_entries_matching(ptr noundef %9, ptr noundef nonnull @.str.2) #14
  %14 = icmp slt i32 %13, 0
  br i1 %14, label %select.unfold, label %15

15:                                               ; preds = %12
  %16 = tail call fastcc i32 @append_tag_(ptr noundef %9, ptr noundef nonnull @.str.10, ptr noundef nonnull @.str.1, float noundef %1)
  %.not.i = icmp eq i32 %16, 0
  br i1 %.not.i, label %select.unfold, label %17

17:                                               ; preds = %15
  %18 = tail call fastcc i32 @append_tag_(ptr noundef %9, ptr noundef nonnull @.str.11, ptr noundef nonnull @.str.2, float noundef %2)
  %.not7.i = icmp eq i32 %18, 0
  br i1 %.not7.i, label %select.unfold, label %grabbag__replaygain_store_to_vorbiscomment_title.exit

select.unfold:                                    ; preds = %17, %12, %8, %15
  %19 = load ptr, ptr %5, align 8, !tbaa !42
  tail call void @FLAC__metadata_chain_delete(ptr noundef %19) #14
  br label %22

grabbag__replaygain_store_to_vorbiscomment_title.exit: ; preds = %17
  %20 = load ptr, ptr %5, align 8, !tbaa !42
  %21 = tail call fastcc ptr @store_to_file_post_(ptr noundef %0, ptr noundef %20, i32 noundef %3)
  br label %22

22:                                               ; preds = %grabbag__replaygain_store_to_vorbiscomment_title.exit, %4, %select.unfold
  %.0 = phi ptr [ @.str.5, %select.unfold ], [ %7, %4 ], [ %21, %grabbag__replaygain_store_to_vorbiscomment_title.exit ]
  call void @llvm.lifetime.end.p0(i64 8, ptr nonnull %6) #14
  call void @llvm.lifetime.end.p0(i64 8, ptr nonnull %5) #14
  ret ptr %.0
}